target datalayout = "e-m:e-p270:32:32-p271:32:32-p272:64:64-i64:64-i128:128-f80:128-n8:16:32:64-S128"
target triple = "x86_64-pc-linux-gnu"

%struct.jpeg_compress_struct = type { ptr, ptr, ptr, ptr, i32, i32, ptr, i32, i32, i32, i32, double, i32, i32, i32, ptr, [4 x ptr], [4 x ptr], [4 x ptr], [16 x i8], [16 x i8], [16 x i8], i32, ptr, i32, i32, i32, i32, i32, i32, i32, i32, i32, i8, i8, i8, i16, i16, i32, i32, i32, i32, i32, i32, i32, [4 x ptr], i32, i32, i32, [10 x i32], i32, i32, i32, i32, ptr, ptr, ptr, ptr, ptr, ptr, ptr, ptr, ptr, ptr, i32 }
%struct.jpeg_error_mgr = type { ptr, ptr, ptr, ptr, ptr, i32, %union.anon, i32, i64, ptr, i32, ptr, i32, i32 }
%union.anon = type { [8 x i32], [48 x i8] }
%struct.jpeg_memory_mgr = type { ptr, ptr, ptr, ptr, ptr, ptr, ptr, ptr, ptr, ptr, ptr, i64, i64 }
%struct._bmp_source_struct = type { %struct.cjpeg_source_struct, ptr, ptr, ptr, i32, i32, i32, i32, i32, ptr }
%struct.cjpeg_source_struct = type { ptr, ptr, ptr, ptr, ptr, ptr, ptr, i32, i32 }
%struct.cdjpeg_progress_mgr = type { %struct.jpeg_progress_mgr, i32, i32, i32, i32, i32 }
%struct.jpeg_progress_mgr = type { ptr, i64, i64, i32, i32 }

; Function Attrs: nounwind uwtable
define internal i32 @preload_image(ptr noundef %0, ptr noundef %1) #0 {
  %3 = alloca ptr, align 8
  %4 = alloca ptr, align 8
  %5 = alloca ptr, align 8
  %6 = alloca ptr, align 8
  %7 = alloca ptr, align 8
  %8 = alloca ptr, align 8
  %9 = alloca i32, align 4
  %10 = alloca ptr, align 8
  store ptr %0, ptr %3, align 8, !tbaa !4
  store ptr %1, ptr %4, align 8, !tbaa !51
  call void @llvm.lifetime.start.p0(i64 8, ptr %5) #7
  %11 = load ptr, ptr %4, align 8, !tbaa !51
  store ptr %11, ptr %5, align 8, !tbaa !38
  call void @llvm.lifetime.start.p0(i64 8, ptr %6) #7
  %12 = load ptr, ptr %5, align 8, !tbaa !38
  %13 = getelementptr inbounds nuw %struct._bmp_source_struct, ptr %12, i32 0, i32 0
  %14 = getelementptr inbounds nuw %struct.cjpeg_source_struct, ptr %13, i32 0, i32 3
  %15 = load ptr, ptr %14, align 8, !tbaa !53
  store ptr %15, ptr %6, align 8, !tbaa !89
  call void @llvm.lifetime.start.p0(i64 8, ptr %7) #7
  call void @llvm.lifetime.start.p0(i64 8, ptr %8) #7
  call void @llvm.lifetime.start.p0(i64 4, ptr %9) #7
  call void @llvm.lifetime.start.p0(i64 8, ptr %10) #7
  %16 = load ptr, ptr %3, align 8, !tbaa !4
  %17 = getelementptr inbounds nuw %struct.jpeg_compress_struct, ptr %16, i32 0, i32 2
  %18 = load ptr, ptr %17, align 8, !tbaa !75
  store ptr %18, ptr %10, align 8, !tbaa !76
  store i32 0, ptr %9, align 4, !tbaa !9
  br label %19

19:                                               ; preds = %101, %2
  %20 = load i32, ptr %9, align 4, !tbaa !9
  %21 = load ptr, ptr %3, align 8, !tbaa !4
  %22 = getelementptr inbounds nuw %struct.jpeg_compress_struct, ptr %21, i32 0, i32 8
  %23 = load i32, ptr %22, align 4, !tbaa !85
  %24 = icmp ult i32 %20, %23
  br i1 %24, label %25, label %104

25:                                               ; preds = %19
  %26 = load ptr, ptr %10, align 8, !tbaa !76
  %27 = icmp ne ptr %26, null
  br i1 %27, label %28, label %46

28:                                               ; preds = %25
  %29 = load i32, ptr %9, align 4, !tbaa !9
  %30 = zext i32 %29 to i64
  %31 = load ptr, ptr %10, align 8, !tbaa !76
  %32 = getelementptr inbounds nuw %struct.cdjpeg_progress_mgr, ptr %31, i32 0, i32 0
  %33 = getelementptr inbounds nuw %struct.jpeg_progress_mgr, ptr %32, i32 0, i32 1
  store i64 %30, ptr %33, align 8, !tbaa !90
  %34 = load ptr, ptr %3, align 8, !tbaa !4
  %35 = getelementptr inbounds nuw %struct.jpeg_compress_struct, ptr %34, i32 0, i32 8
  %36 = load i32, ptr %35, align 4, !tbaa !85
  %37 = zext i32 %36 to i64
  %38 = load ptr, ptr %10, align 8, !tbaa !76
  %39 = getelementptr inbounds nuw %struct.cdjpeg_progress_mgr, ptr %38, i32 0, i32 0
  %40 = getelementptr inbounds nuw %struct.jpeg_progress_mgr, ptr %39, i32 0, i32 2
  store i64 %37, ptr %40, align 8, !tbaa !91
  %41 = load ptr, ptr %10, align 8, !tbaa !76
  %42 = getelementptr inbounds nuw %struct.cdjpeg_progress_mgr, ptr %41, i32 0, i32 0
  %43 = getelementptr inbounds nuw %struct.jpeg_progress_mgr, ptr %42, i32 0, i32 0
  %44 = load ptr, ptr %43, align 8, !tbaa !92
  %45 = load ptr, ptr %3, align 8, !tbaa !4
  call void %44(ptr noundef %45)
  br label %46

46:                                               ; preds = %28, %25
  %47 = load ptr, ptr %3, align 8, !tbaa !4
  %48 = getelementptr inbounds nuw %struct.jpeg_compress_struct, ptr %47, i32 0, i32 1
  %49 = load ptr, ptr %48, align 8, !tbaa !35
  %50 = getelementptr inbounds nuw %struct.jpeg_memory_mgr, ptr %49, i32 0, i32 7
  %51 = load ptr, ptr %50, align 8, !tbaa !93
  %52 = load ptr, ptr %3, align 8, !tbaa !4
  %53 = load ptr, ptr %5, align 8, !tbaa !38
  %54 = getelementptr inbounds nuw %struct._bmp_source_struct, ptr %53, i32 0, i32 3
  %55 = load ptr, ptr %54, align 8, !tbaa !73
  %56 = load i32, ptr %9, align 4, !tbaa !9
  %57 = call ptr %51(ptr noundef %52, ptr noundef %55, i32 noundef %56, i32 noundef 1, i32 noundef 1)
  store ptr %57, ptr %8, align 8, !tbaa !94
  %58 = load ptr, ptr %8, align 8, !tbaa !94
  %59 = getelementptr inbounds ptr, ptr %58, i64 0
  %60 = load ptr, ptr %59, align 8, !tbaa !86
  store ptr %60, ptr %7, align 8, !tbaa !86
  %61 = load ptr, ptr %7, align 8, !tbaa !86
  %62 = load ptr, ptr %5, align 8, !tbaa !38
  %63 = getelementptr inbounds nuw %struct._bmp_source_struct, ptr %62, i32 0, i32 5
  %64 = load i32, ptr %63, align 4, !tbaa !71
  %65 = zext i32 %64 to i64
  %66 = load ptr, ptr %6, align 8, !tbaa !89
  %67 = call i64 @fread(ptr noundef %61, i64 noundef 1, i64 noundef %65, ptr noundef %66)
  %68 = load ptr, ptr %5, align 8, !tbaa !38
  %69 = getelementptr inbounds nuw %struct._bmp_source_struct, ptr %68, i32 0, i32 5
  %70 = load i32, ptr %69, align 4, !tbaa !71
  %71 = zext i32 %70 to i64
  %72 = icmp ne i64 %67, %71
  br i1 %72, label %73, label %100

73:                                               ; preds = %46
  %74 = load ptr, ptr %6, align 8, !tbaa !89
  %75 = call i32 @feof(ptr noundef %74) #7
  %76 = icmp ne i32 %75, 0
  br i1 %76, label %77, label %88

77:                                               ; preds = %73
  %78 = load ptr, ptr %3, align 8, !tbaa !4
  %79 = getelementptr inbounds nuw %struct.jpeg_compress_struct, ptr %78, i32 0, i32 0
  %80 = load ptr, ptr %79, align 8, !tbaa !28
  %81 = getelementptr inbounds nuw %struct.jpeg_error_mgr, ptr %80, i32 0, i32 5
  store i32 43, ptr %81, align 8, !tbaa !29
  %82 = load ptr, ptr %3, align 8, !tbaa !4
  %83 = getelementptr inbounds nuw %struct.jpeg_compress_struct, ptr %82, i32 0, i32 0
  %84 = load ptr, ptr %83, align 8, !tbaa !28
  %85 = getelementptr inbounds nuw %struct.jpeg_error_mgr, ptr %84, i32 0, i32 0
  %86 = load ptr, ptr %85, align 8, !tbaa !34
  %87 = load ptr, ptr %3, align 8, !tbaa !4
  call void %86(ptr noundef %87)
  br label %99

88:                                               ; preds = %73
  %89 = load ptr, ptr %3, align 8, !tbaa !4
  %90 = getelementptr inbounds nuw %struct.jpeg_compress_struct, ptr %89, i32 0, i32 0
  %91 = load ptr, ptr %90, align 8, !tbaa !28
  %92 = getelementptr inbounds nuw %struct.jpeg_error_mgr, ptr %91, i32 0, i32 5
  store i32 36, ptr %92, align 8, !tbaa !29
  %93 = load ptr, ptr %3, align 8, !tbaa !4
  %94 = getelementptr inbounds nuw %struct.jpeg_compress_struct, ptr %93, i32 0, i32 0
  %95 = load ptr, ptr %94, align 8, !tbaa !28
  %96 = getelementptr inbounds nuw %struct.jpeg_error_mgr, ptr %95, i32 0, i32 0
  %97 = load ptr, ptr %96, align 8, !tbaa !34
  %98 = load ptr, ptr %3, align 8, !tbaa !4
  call void %97(ptr noundef %98)
  br label %99

99:                                               ; preds = %88, %77
  br label %100

100:                                              ; preds = %99, %46
  br label %101

101:                                              ; preds = %100
  %102 = load i32, ptr %9, align 4, !tbaa !9
  %103 = add i32 %102, 1
  store i32 %103, ptr %9, align 4, !tbaa !9
  br label %19, !llvm.loop !95

104:                                              ; preds = %19
  %105 = load ptr, ptr %10, align 8, !tbaa !76
  %106 = icmp ne ptr %105, null
  br i1 %106, label %107, label %112

107:                                              ; preds = %104
  %108 = load ptr, ptr %10, align 8, !tbaa !76
  %109 = getelementptr inbounds nuw %struct.cdjpeg_progress_mgr, ptr %108, i32 0, i32 1
  %110 = load i32, ptr %109, align 8, !tbaa !96
  %111 = add nsw i32 %110, 1
  store i32 %111, ptr %109, align 8, !tbaa !96
  br label %112

112:                                              ; preds = %107, %104
  %113 = load ptr, ptr %5, align 8, !tbaa !38
  %114 = getelementptr inbounds nuw %struct._bmp_source_struct, ptr %113, i32 0, i32 6
  %115 = load i32, ptr %114, align 8, !tbaa !55
  switch i32 %115, label %128 [
    i32 8, label %116
    i32 24, label %120
    i32 32, label %124
  ]

116:                                              ; preds = %112
  %117 = load ptr, ptr %5, align 8, !tbaa !38
  %118 = getelementptr inbounds nuw %struct._bmp_source_struct, ptr %117, i32 0, i32 0
  %119 = getelementptr inbounds nuw %struct.cjpeg_source_struct, ptr %118, i32 0, i32 1
  store ptr @get_8bit_row, ptr %119, align 8, !tbaa !74
  br label %139

120:                                              ; preds = %112
  %121 = load ptr, ptr %5, align 8, !tbaa !38
  %122 = getelementptr inbounds nuw %struct._bmp_source_struct, ptr %121, i32 0, i32 0
  %123 = getelementptr inbounds nuw %struct.cjpeg_source_struct, ptr %122, i32 0, i32 1
  store ptr @get_24bit_row, ptr %123, align 8, !tbaa !74
  br label %139

124:                                              ; preds = %112
  %125 = load ptr, ptr %5, align 8, !tbaa !38
  %126 = getelementptr inbounds nuw %struct._bmp_source_struct, ptr %125, i32 0, i32 0
  %127 = getelementptr inbounds nuw %struct.cjpeg_source_struct, ptr %126, i32 0, i32 1
  store ptr @get_32bit_row, ptr %127, align 8, !tbaa !74
  br label %139

128:                                              ; preds = %112
  %129 = load ptr, ptr %3, align 8, !tbaa !4
  %130 = getelementptr inbounds nuw %struct.jpeg_compress_struct, ptr %129, i32 0, i32 0
  %131 = load ptr, ptr %130, align 8, !tbaa !28
  %132 = getelementptr inbounds nuw %struct.jpeg_error_mgr, ptr %131, i32 0, i32 5
  store i32 1002, ptr %132, align 8, !tbaa !29
  %133 = load ptr, ptr %3, align 8, !tbaa !4
  %134 = getelementptr inbounds nuw %struct.jpeg_compress_struct, ptr %133, i32 0, i32 0
  %135 = load ptr, ptr %134, align 8, !tbaa !28
  %136 = getelementptr inbounds nuw %struct.jpeg_error_mgr, ptr %135, i32 0, i32 0
  %137 = load ptr, ptr %136, align 8, !tbaa !34
  %138 = load ptr, ptr %3, align 8, !tbaa !4
  call void %137(ptr noundef %138)
  br label %139

139:                                              ; preds = %128, %124, %120, %116
  %140 = load ptr, ptr %3, align 8, !tbaa !4
  %141 = getelementptr inbounds nuw %struct.jpeg_compress_struct, ptr %140, i32 0, i32 8
  %142 = load i32, ptr %141, align 4, !tbaa !85
  %143 = load ptr, ptr %5, align 8, !tbaa !38
  %144 = getelementptr inbounds nuw %struct._bmp_source_struct, ptr %143, i32 0, i32 4
  store i32 %142, ptr %144, align 8, !tbaa !97
  %145 = load ptr, ptr %5, align 8, !tbaa !38
  %146 = getelementptr inbounds nuw %struct._bmp_source_struct, ptr %145, i32 0, i32 0
  %147 = getelementptr inbounds nuw %struct.cjpeg_source_struct, ptr %146, i32 0, i32 1
  %148 = load ptr, ptr %147, align 8, !tbaa !74
  %149 = load ptr, ptr %3, align 8, !tbaa !4
  %150 = load ptr, ptr %4, align 8, !tbaa !51
  %151 = call i32 %148(ptr noundef %149, ptr noundef %150)
  call void @llvm.lifetime.end.p0(i64 8, ptr %10) #7
  call void @llvm.lifetime.end.p0(i64 4, ptr %9) #7
  call void @llvm.lifetime.end.p0(i64 8, ptr %8) #7
  call void @llvm.lifetime.end.p0(i64 8, ptr %7) #7
  call void @llvm.lifetime.end.p0(i64 8, ptr %6) #7
  call void @llvm.lifetime.end.p0(i64 8, ptr %5) #7
  ret i32 %151
}