; Function Attrs: nounwind uwtable
define internal i32 @preload_image(ptr noundef %0, ptr noundef %1) #0 {
  %3 = getelementptr inbounds nuw i8, ptr %1, i64 24
  %4 = load ptr, ptr %3, align 8, !tbaa !47
  %5 = getelementptr inbounds nuw i8, ptr %0, i64 16
  %6 = load ptr, ptr %5, align 8, !tbaa !69
  %7 = getelementptr inbounds nuw i8, ptr %0, i64 52
  %8 = load i32, ptr %7, align 4, !tbaa !77
  %.not47 = icmp eq i32 %8, 0
  br i1 %.not47, label %._crit_edge, label %.lr.ph

.lr.ph:                                           ; preds = %2
  %.not43 = icmp eq ptr %6, null
  %9 = getelementptr inbounds nuw i8, ptr %6, i64 8
  %10 = getelementptr inbounds nuw i8, ptr %6, i64 16
  %11 = getelementptr inbounds nuw i8, ptr %0, i64 8
  %12 = getelementptr inbounds nuw i8, ptr %1, i64 80
  %13 = getelementptr inbounds nuw i8, ptr %1, i64 92
  br i1 %.not43, label %.lr.ph.split.us, label %.lr.ph.split

.lr.ph.split.us:                                  ; preds = %.lr.ph, %29
  %.046.us = phi i32 [ %30, %29 ], [ 0, %.lr.ph ]
  %14 = load ptr, ptr %11, align 8, !tbaa !32
  %15 = getelementptr inbounds nuw i8, ptr %14, i64 56
  %16 = load ptr, ptr %15, align 8, !tbaa !78
  %17 = load ptr, ptr %12, align 8, !tbaa !67
  %18 = tail call ptr %16(ptr noundef nonnull %0, ptr noundef %17, i32 noundef %.046.us, i32 noundef 1, i32 noundef 1) #6
  %19 = load ptr, ptr %18, align 8, !tbaa !58
  %20 = load i32, ptr %13, align 4, !tbaa !65
  %21 = zext i32 %20 to i64
  %22 = tail call i64 @fread(ptr noundef %19, i64 noundef 1, i64 noundef %21, ptr noundef %4)
  %23 = load i32, ptr %13, align 4, !tbaa !65
  %24 = zext i32 %23 to i64
  %.not44.us = icmp eq i64 %22, %24
  br i1 %.not44.us, label %29, label %.sink.split

.sink.split:                                      ; preds = %.lr.ph.split.us
  %25 = tail call i32 @feof(ptr noundef %4) #6
  %.not45.us = icmp eq i32 %25, 0
  %26 = load ptr, ptr %0, align 8, !tbaa !25
  %27 = getelementptr inbounds nuw i8, ptr %26, i64 40
  %. = select i1 %.not45.us, i32 36, i32 43
  store i32 %., ptr %27, align 8, !tbaa !26
  %28 = load ptr, ptr %26, align 8, !tbaa !31
  tail call void %28(ptr noundef nonnull %0) #6
  br label %29

29:                                               ; preds = %.sink.split, %.lr.ph.split.us
  %30 = add nuw i32 %.046.us, 1
  %31 = load i32, ptr %7, align 4, !tbaa !77
  %32 = icmp ult i32 %30, %31
  br i1 %32, label %.lr.ph.split.us, label %._crit_edge, !llvm.loop !79

.lr.ph.split:                                     ; preds = %.lr.ph, %52
  %indvars.iv = phi i64 [ %indvars.iv.next, %52 ], [ 0, %.lr.ph ]
  %33 = phi i32 [ %53, %52 ], [ %8, %.lr.ph ]
  store i64 %indvars.iv, ptr %9, align 8, !tbaa !80
  %34 = zext i32 %33 to i64
  store i64 %34, ptr %10, align 8, !tbaa !81
  %35 = load ptr, ptr %6, align 8, !tbaa !82
  tail call void %35(ptr noundef nonnull %0) #6
  %36 = load ptr, ptr %11, align 8, !tbaa !32
  %37 = getelementptr inbounds nuw i8, ptr %36, i64 56
  %38 = load ptr, ptr %37, align 8, !tbaa !78
  %39 = load ptr, ptr %12, align 8, !tbaa !67
  %40 = trunc nuw i64 %indvars.iv to i32
  %41 = tail call ptr %38(ptr noundef nonnull %0, ptr noundef %39, i32 noundef %40, i32 noundef 1, i32 noundef 1) #6
  %42 = load ptr, ptr %41, align 8, !tbaa !58
  %43 = load i32, ptr %13, align 4, !tbaa !65
  %44 = zext i32 %43 to i64
  %45 = tail call i64 @fread(ptr noundef %42, i64 noundef 1, i64 noundef %44, ptr noundef %4)
  %46 = load i32, ptr %13, align 4, !tbaa !65
  %47 = zext i32 %46 to i64
  %.not44 = icmp eq i64 %45, %47
  br i1 %.not44, label %52, label %.sink.split53

.sink.split53:                                    ; preds = %.lr.ph.split
  %48 = tail call i32 @feof(ptr noundef %4) #6
  %.not45 = icmp eq i32 %48, 0
  %49 = load ptr, ptr %0, align 8, !tbaa !25
  %50 = getelementptr inbounds nuw i8, ptr %49, i64 40
  %.56 = select i1 %.not45, i32 36, i32 43
  store i32 %.56, ptr %50, align 8, !tbaa !26
  %51 = load ptr, ptr %49, align 8, !tbaa !31
  tail call void %51(ptr noundef nonnull %0) #6
  br label %52

52:                                               ; preds = %.sink.split53, %.lr.ph.split
  %indvars.iv.next = add nuw nsw i64 %indvars.iv, 1
  %53 = load i32, ptr %7, align 4, !tbaa !77
  %54 = zext i32 %53 to i64
  %55 = icmp samesign ult i64 %indvars.iv.next, %54
  br i1 %55, label %.lr.ph.split, label %._crit_edge.thread, !llvm.loop !79

._crit_edge:                                      ; preds = %29, %2
  %56 = phi i32 [ 0, %2 ], [ %31, %29 ]
  %.not = icmp eq ptr %6, null
  br i1 %.not, label %61, label %._crit_edge.thread

._crit_edge.thread:                               ; preds = %52, %._crit_edge
  %57 = phi i32 [ %56, %._crit_edge ], [ %53, %52 ]
  %58 = getelementptr inbounds nuw i8, ptr %6, i64 32
  %59 = load i32, ptr %58, align 8, !tbaa !83
  %60 = add nsw i32 %59, 1
  store i32 %60, ptr %58, align 8, !tbaa !83
  br label %61

61:                                               ; preds = %._crit_edge.thread, %._crit_edge
  %62 = phi i32 [ %57, %._crit_edge.thread ], [ %56, %._crit_edge ]
  %63 = getelementptr inbounds nuw i8, ptr %1, i64 96
  %64 = load i32, ptr %63, align 8, !tbaa !48
  switch i32 %64, label %71 [
    i32 8, label %65
    i32 24, label %67
    i32 32, label %69
  ]

65:                                               ; preds = %61
  %66 = getelementptr inbounds nuw i8, ptr %1, i64 8
  store ptr @get_8bit_row, ptr %66, align 8, !tbaa !68
  br label %75

67:                                               ; preds = %61
  %68 = getelementptr inbounds nuw i8, ptr %1, i64 8
  store ptr @get_24bit_row, ptr %68, align 8, !tbaa !68
  br label %75

69:                                               ; preds = %61
  %70 = getelementptr inbounds nuw i8, ptr %1, i64 8
  store ptr @get_32bit_row, ptr %70, align 8, !tbaa !68
  br label %75

71:                                               ; preds = %61
  %72 = load ptr, ptr %0, align 8, !tbaa !25
  %73 = getelementptr inbounds nuw i8, ptr %72, i64 40
  store i32 1002, ptr %73, align 8, !tbaa !26
  %74 = load ptr, ptr %72, align 8, !tbaa !31
  tail call void %74(ptr noundef nonnull %0) #6
  %.pre = load i32, ptr %7, align 4, !tbaa !77
  %.phi.trans.insert = getelementptr inbounds nuw i8, ptr %1, i64 8
  %.pre50 = load ptr, ptr %.phi.trans.insert, align 8, !tbaa !68
  br label %75

75:                                               ; preds = %71, %69, %67, %65
  %76 = phi ptr [ %.pre50, %71 ], [ @get_32bit_row, %69 ], [ @get_24bit_row, %67 ], [ @get_8bit_row, %65 ]
  %77 = phi i32 [ %.pre, %71 ], [ %62, %69 ], [ %62, %67 ], [ %62, %65 ]
  %78 = getelementptr inbounds nuw i8, ptr %1, i64 88
  store i32 %77, ptr %78, align 8, !tbaa !84
  %79 = tail call i32 %76(ptr noundef nonnull %0, ptr noundef nonnull %1) #6
  ret i32 %79
}